Certificate:
    Data:
        Version: 3 (0x2)
        Serial Number:
            c6:8c:8d:25:0b:2d:d6:65:97:ac:ef:3a:32:24:31:bb
        Signature Algorithm: sha256WithRSAEncryption
        Issuer: CN=10.0.0.2@1605389531
        Validity
            Not Before: Nov 14 21:33:21 2020 GMT
            Not After : Apr  1 21:33:21 2048 GMT
        Subject: CN=server
        Subject Public Key Info:
            Public Key Algorithm: rsaEncryption
                RSA Public-Key: (2048 bit)
                Modulus:
                    00:a6:50:a5:e5:f5:4b:4d:63:d9:3b:af:8f:7f:bc:
                    a7:83:33:14:a2:ed:e5:dd:2c:f2:2c:68:17:f2:6b:
                    52:ab:44:ce:5d:88:7d:b2:66:a7:a2:6a:ec:27:d6:
                    9c:3a:1d:7a:26:44:d5:49:0b:e4:a4:fd:b8:7d:9d:
                    2e:89:90:02:db:97:e4:4d:f8:ea:b3:1a:d2:29:98:
                    d1:fb:44:e5:f1:10:29:b3:41:15:13:35:e6:ec:2d:
                    b1:97:88:4f:85:b3:93:c3:8b:74:9d:01:23:50:58:
                    03:55:59:f2:b1:77:74:02:1d:df:d6:4f:c5:27:7e:
                    08:07:b2:b4:e0:bf:fb:55:00:3b:6a:1c:cb:33:ba:
                    94:f1:b8:63:03:e7:c5:f2:55:11:c7:b7:61:0e:18:
                    4b:2d:57:8b:f3:a4:28:e6:a5:f5:56:8f:a0:30:4b:
                    ec:8d:dc:e7:83:29:f0:3d:78:29:9d:32:20:e4:f6:
                    e1:bd:35:f1:f8:70:cf:c6:6d:53:24:26:1a:6a:79:
                    e0:0c:81:a0:7a:9e:84:9d:e3:a4:a7:cb:79:b3:23:
                    1d:0e:b4:33:aa:85:6d:4a:69:65:bb:fa:41:0d:53:
                    c9:e0:07:2f:82:42:d1:30:45:db:24:86:53:86:6c:
                    64:2c:c2:ea:99:57:d3:63:86:4f:2a:7f:2f:ef:5f:
                    d3:5d
                Exponent: 65537 (0x10001)
        X509v3 extensions:
            X509v3 Basic Constraints: 
                CA:FALSE
            X509v3 Subject Key Identifier: 
                74:1F:88:81:BC:C2:21:C6:26:32:81:C1:C0:BA:6D:A5:08:89:DA:E0
            X509v3 Authority Key Identifier: 
                keyid:C5:C4:D0:A2:CB:37:29:38:C4:33:01:00:CE:28:38:A6:CB:20:90:31
                DirName:/CN=10.0.0.2@1605389531
                serial:33:6B:64:23:70:CE:47:A4:5E:AD:ED:34:92:54:75:53:42:E9:23:FE

            X509v3 Extended Key Usage: 
                TLS Web Server Authentication
            X509v3 Key Usage: 
                Digital Signature, Key Encipherment
            X509v3 Subject Alternative Name: 
                IP Address:10.0.0.2, IP Address:10.0.0.3, DNS:kubernetes, DNS:kubernetes.default, DNS:kubernetes.default.svc, DNS:kubernetes.default.svc.cluster, DNS:kubernetes.default.svc.cluster.local
    Signature Algorithm: sha256WithRSAEncryption
         b2:b9:67:6c:c2:73:b0:c1:13:00:b3:11:82:36:5d:8a:ce:11:
         2f:cb:da:39:77:49:b4:18:42:ed:78:3b:e4:89:b1:f3:f7:99:
         3c:d3:47:35:c4:1a:c6:7f:a9:75:d7:6e:2a:7b:a2:87:ed:58:
         9f:de:be:bb:5d:92:d3:31:dc:0a:40:08:7c:8a:52:bd:d9:5e:
         2e:d7:a7:5a:0d:16:0c:f0:c1:f3:bf:68:20:46:6d:5c:4d:23:
         54:2e:66:00:bb:83:45:92:58:5d:2d:e3:03:74:16:09:cf:eb:
         0e:0c:62:18:1b:25:7a:8d:c8:50:ad:4d:fe:2e:8b:32:f8:04:
         36:43:71:22:4c:7e:b2:2d:72:7a:e8:6a:f6:34:49:ff:59:1b:
         98:7b:2a:f7:ff:9b:c6:72:3d:e9:8c:1e:22:6c:71:00:eb:45:
         86:80:20:05:9f:a5:80:7e:d3:99:38:55:d9:36:ce:ee:81:38:
         c1:85:8d:e2:0e:db:3d:f1:58:14:fd:9a:dc:72:ec:50:f5:75:
         15:7f:70:bd:ce:93:35:0b:4a:ae:8b:90:9b:35:52:99:b3:ce:
         36:ae:c7:6c:6c:4b:cb:91:ef:a6:a9:2f:2d:dc:65:60:e0:25:
         22:b1:82:2f:5d:8d:86:2a:f5:de:a9:d4:c4:ca:e5:c9:4e:65:
         9f:80:b2:88
-----BEGIN CERTIFICATE-----
MIID/zCCAuegAwIBAgIRAMaMjSULLdZll6zvOjIkMbswDQYJKoZIhvcNAQELBQAw
HjEcMBoGA1UEAwwTMTAuMC4wLjJAMTYwNTM4OTUzMTAeFw0yMDExMTQyMTMzMjFa
Fw00ODA0MDEyMTMzMjFaMBExDzANBgNVBAMMBnNlcnZlcjCCASIwDQYJKoZIhvcN
AQEBBQADggEPADCCAQoCggEBAKZQpeX1S01j2Tuvj3+8p4MzFKLt5d0s8ixoF/Jr
UqtEzl2IfbJmp6Jq7CfWnDodeiZE1UkL5KT9uH2dLomQAtuX5E346rMa0imY0ftE
5fEQKbNBFRM15uwtsZeIT4Wzk8OLdJ0BI1BYA1VZ8rF3dAId39ZPxSd+CAeytOC/
+1UAO2ocyzO6lPG4YwPnxfJVEce3YQ4YSy1Xi/OkKOal9VaPoDBL7I3c54Mp8D14
KZ0yIOT24b018fhwz8ZtUyQmGmp54AyBoHqehJ3jpKfLebMjHQ60M6qFbUppZbv6
QQ1TyeAHL4JC0TBF2ySGU4ZsZCzC6plX02OGTyp/L+9f010CAwEAAaOCAUMwggE/
MAkGA1UdEwQCMAAwHQYDVR0OBBYEFHQfiIG8wiHGJjKBwcC6baUIidrgMFkGA1Ud
IwRSMFCAFMXE0KLLNyk4xDMBAM4oOKbLIJAxoSKkIDAeMRwwGgYDVQQDDBMxMC4w
LjAuMkAxNjA1Mzg5NTMxghQza2QjcM5HpF6t7TSSVHVTQukj/jATBgNVHSUEDDAK
BggrBgEFBQcDATALBgNVHQ8EBAMCBaAwgZUGA1UdEQSBjTCBiocECgAAAocECgAA
A4IKa3ViZXJuZXRlc4ISa3ViZXJuZXRlcy5kZWZhdWx0ghZrdWJlcm5ldGVzLmRl
ZmF1bHQuc3Zjgh5rdWJlcm5ldGVzLmRlZmF1bHQuc3ZjLmNsdXN0ZXKCJGt1YmVy
bmV0ZXMuZGVmYXVsdC5zdmMuY2x1c3Rlci5sb2NhbDANBgkqhkiG9w0BAQsFAAOC
AQEAsrlnbMJzsMETALMRgjZdis4RL8vaOXdJtBhC7Xg75Imx8/eZPNNHNcQaxn+p
ddduKnuih+1Yn96+u12S0zHcCkAIfIpSvdleLtenWg0WDPDB879oIEZtXE0jVC5m
ALuDRZJYXS3jA3QWCc/rDgxiGBsleo3IUK1N/i6LMvgENkNxIkx+si1yeuhq9jRJ
/1kbmHsq9/+bxnI96YweImxxAOtFhoAgBZ+lgH7TmThV2TbO7oE4wYWN4g7bPfFY
FP2a3HLsUPV1FX9wvc6TNQtKrouQmzVSmbPONq7HbGxLy5HvpqkvLdxlYOAlIrGC
L12Nhir13qnUxMrlyU5ln4CyiA==
-----END CERTIFICATE-----
